(dp0
I90
cnumpy.core.multiarray
scalar
p1
(cnumpy
dtype
p2
(S'f8'
p3
I0
I1
tp4
Rp5
(I3
S'<'
p6
NNNI-1
I-1
I0
tp7
bS'\x8f\xc2\xf5(\\/C@'
p8
tp9
Rp10
sI91
g1
(g5
S'\x9a\x99\x99\x99\x99\x19C@'
p11
tp12
Rp13
sI92
g1
(g5
S'\x00\x00\x00\x00\x00\x80C@'
p14
tp15
Rp16
s.